; Function Attrs: mustprogress nofree norecurse nosync nounwind willreturn memory(readwrite, inaccessiblemem: none) uwtable
define dso_local void @sentinelDisconnectCallback(ptr noundef readonly captures(address) %0, i32 %1) #20 {
  %3 = getelementptr inbounds nuw i8, ptr %0, i64 288
  %4 = load ptr, ptr %3, align 8, !tbaa !126
  %.not.i = icmp eq ptr %4, null
  br i1 %.not.i, label %instanceLinkConnectionError.exit, label %5

5:                                                ; preds = %2
  %6 = getelementptr inbounds nuw i8, ptr %4, i64 24
  %7 = load ptr, ptr %6, align 8, !tbaa !125
  %8 = icmp eq ptr %7, %0
  br i1 %8, label %9, label %10

9:                                                ; preds = %5
  store ptr null, ptr %6, align 8, !tbaa !125
  br label %12

10:                                               ; preds = %5
  %11 = getelementptr inbounds nuw i8, ptr %4, i64 16
  store ptr null, ptr %11, align 8, !tbaa !124
  br label %12

12:                                               ; preds = %10, %9
  %13 = getelementptr inbounds nuw i8, ptr %4, i64 4
  store i32 1, ptr %13, align 4, !tbaa !117
  br label %instanceLinkConnectionError.exit

instanceLinkConnectionError.exit:                 ; preds = %2, %12
  ret void
}